
out/unzip.elf:     file format elf32-tradlittlemips

Disassembly of section .text:

80200000 <LzmaDec>:
80200000:	27bdffb0 	addiu	sp,sp,-80
80200004:	afbf004c 	sw	ra,76(sp)
80200008:	afbe0048 	sw	s8,72(sp)
8020000c:	03a0f021 	move	s8,sp
80200010:	afc40050 	sw	a0,80(s8)
80200014:	afc50054 	sw	a1,84(s8)
80200018:	afc60058 	sw	a2,88(s8)
8020001c:	8fc20058 	lw	v0,88(s8)
80200020:	30420003 	andi	v0,v0,0x3
80200024:	10400005 	beqz	v0,8020003c <LzmaDec+0x3c>
80200028:	00000000 	nop
8020002c:	2402ffff 	li	v0,-1
80200030:	afc20040 	sw	v0,64(s8)
80200034:	0808005c 	j	80200170 <LzmaDec+0x170>
80200038:	00000000 	nop
8020003c:	27c40020 	addiu	a0,s8,32
80200040:	8fc50050 	lw	a1,80(s8)
80200044:	24060005 	li	a2,5
80200048:	0c080064 	jal	80200190 <LzmaDecodeProperties>
8020004c:	00000000 	nop
80200050:	10400005 	beqz	v0,80200068 <LzmaDec+0x68>
80200054:	00000000 	nop
80200058:	2402ffff 	li	v0,-1
8020005c:	afc20040 	sw	v0,64(s8)
80200060:	0808005c 	j	80200170 <LzmaDec+0x170>
80200064:	00000000 	nop
80200068:	8fc20050 	lw	v0,80(s8)
8020006c:	24420005 	addiu	v0,v0,5
80200070:	afc20050 	sw	v0,80(s8)
80200074:	8fc20050 	lw	v0,80(s8)
80200078:	90420003 	lbu	v0,3(v0)
8020007c:	00021e00 	sll	v1,v0,0x18
80200080:	8fc20050 	lw	v0,80(s8)
80200084:	90420002 	lbu	v0,2(v0)
80200088:	00021400 	sll	v0,v0,0x10
8020008c:	00621825 	or	v1,v1,v0
80200090:	8fc20050 	lw	v0,80(s8)
80200094:	90420001 	lbu	v0,1(v0)
80200098:	00021200 	sll	v0,v0,0x8
8020009c:	00621825 	or	v1,v1,v0
802000a0:	8fc20050 	lw	v0,80(s8)
802000a4:	90420000 	lbu	v0,0(v0)
802000a8:	00621025 	or	v0,v1,v0
802000ac:	afc20030 	sw	v0,48(s8)
802000b0:	8fc20030 	lw	v0,48(s8)
802000b4:	14400005 	bnez	v0,802000cc <LzmaDec+0xcc>
802000b8:	00000000 	nop
802000bc:	2402ffff 	li	v0,-1
802000c0:	afc20040 	sw	v0,64(s8)
802000c4:	0808005c 	j	80200170 <LzmaDec+0x170>
802000c8:	00000000 	nop
802000cc:	8fc20050 	lw	v0,80(s8)
802000d0:	24420008 	addiu	v0,v0,8
802000d4:	afc20050 	sw	v0,80(s8)
802000d8:	8fc20058 	lw	v0,88(s8)
802000dc:	afc2002c 	sw	v0,44(s8)
802000e0:	27c30034 	addiu	v1,s8,52
802000e4:	8fc20054 	lw	v0,84(s8)
802000e8:	afa20010 	sw	v0,16(sp)
802000ec:	8fc20030 	lw	v0,48(s8)
802000f0:	afa20014 	sw	v0,20(sp)
802000f4:	27c20038 	addiu	v0,s8,56
802000f8:	afa20018 	sw	v0,24(sp)
802000fc:	27c40020 	addiu	a0,s8,32
80200100:	8fc50050 	lw	a1,80(s8)
80200104:	8fc60030 	lw	a2,48(s8)
80200108:	00603821 	move	a3,v1
8020010c:	0c0800a7 	jal	8020029c <LzmaDecode>
80200110:	00000000 	nop
80200114:	afc2003c 	sw	v0,60(s8)
80200118:	8fc2003c 	lw	v0,60(s8)
8020011c:	14400010 	bnez	v0,80200160 <LzmaDec+0x160>
80200120:	00000000 	nop
80200124:	8fc30038 	lw	v1,56(s8)
80200128:	8fc20030 	lw	v0,48(s8)
8020012c:	14620004 	bne	v1,v0,80200140 <LzmaDec+0x140>
80200130:	00000000 	nop
80200134:	8fc20038 	lw	v0,56(s8)
80200138:	14400005 	bnez	v0,80200150 <LzmaDec+0x150>
8020013c:	00000000 	nop
80200140:	2402ffff 	li	v0,-1
80200144:	afc2003c 	sw	v0,60(s8)
80200148:	0808005a 	j	80200168 <LzmaDec+0x168>
8020014c:	00000000 	nop
80200150:	8fc20038 	lw	v0,56(s8)
80200154:	afc2003c 	sw	v0,60(s8)
80200158:	0808005a 	j	80200168 <LzmaDec+0x168>
8020015c:	00000000 	nop
80200160:	2402ffff 	li	v0,-1
80200164:	afc2003c 	sw	v0,60(s8)
80200168:	8fc2003c 	lw	v0,60(s8)
8020016c:	afc20040 	sw	v0,64(s8)
80200170:	8fc20040 	lw	v0,64(s8)
80200174:	03c0e821 	move	sp,s8
80200178:	8fbf004c 	lw	ra,76(sp)
8020017c:	8fbe0048 	lw	s8,72(sp)
80200180:	27bd0050 	addiu	sp,sp,80
80200184:	03e00008 	jr	ra
80200188:	00000000 	nop
8020018c:	00000000 	nop

80200190 <LzmaDecodeProperties>:
80200190:	27bdfff0 	addiu	sp,sp,-16
80200194:	afbe0008 	sw	s8,8(sp)
80200198:	03a0f021 	move	s8,sp
8020019c:	afc40010 	sw	a0,16(s8)
802001a0:	afc50014 	sw	a1,20(s8)
802001a4:	afc60018 	sw	a2,24(s8)
802001a8:	8fc20018 	lw	v0,24(s8)
802001ac:	28420005 	slti	v0,v0,5
802001b0:	10400005 	beqz	v0,802001c8 <LzmaDecodeProperties+0x38>
802001b4:	00000000 	nop
802001b8:	24020001 	li	v0,1
802001bc:	afc20004 	sw	v0,4(s8)
802001c0:	080800a1 	j	80200284 <LzmaDecodeProperties+0xf4>
802001c4:	00000000 	nop
802001c8:	8fc20014 	lw	v0,20(s8)
802001cc:	90420000 	lbu	v0,0(v0)
802001d0:	a3c20000 	sb	v0,0(s8)
802001d4:	93c20000 	lbu	v0,0(s8)
802001d8:	2c4200e1 	sltiu	v0,v0,225
802001dc:	14400005 	bnez	v0,802001f4 <LzmaDecodeProperties+0x64>
802001e0:	00000000 	nop
802001e4:	24020001 	li	v0,1
802001e8:	afc20004 	sw	v0,4(s8)
802001ec:	080800a1 	j	80200284 <LzmaDecodeProperties+0xf4>
802001f0:	00000000 	nop
802001f4:	8fc20010 	lw	v0,16(s8)
802001f8:	ac400008 	sw	zero,8(v0)
802001fc:	93c20000 	lbu	v0,0(s8)
80200200:	2c42002d 	sltiu	v0,v0,45
80200204:	1440000b 	bnez	v0,80200234 <LzmaDecodeProperties+0xa4>
80200208:	00000000 	nop
8020020c:	8fc30010 	lw	v1,16(s8)
80200210:	8fc20010 	lw	v0,16(s8)
80200214:	8c420008 	lw	v0,8(v0)
80200218:	24420001 	addiu	v0,v0,1
8020021c:	ac620008 	sw	v0,8(v1)
80200220:	93c20000 	lbu	v0,0(s8)
80200224:	2442ffd3 	addiu	v0,v0,-45
80200228:	a3c20000 	sb	v0,0(s8)
8020022c:	0808007f 	j	802001fc <LzmaDecodeProperties+0x6c>
80200230:	00000000 	nop
80200234:	8fc20010 	lw	v0,16(s8)
80200238:	ac400004 	sw	zero,4(v0)
8020023c:	93c20000 	lbu	v0,0(s8)
80200240:	2c420009 	sltiu	v0,v0,9
80200244:	1440000b 	bnez	v0,80200274 <LzmaDecodeProperties+0xe4>
80200248:	00000000 	nop
8020024c:	8fc30010 	lw	v1,16(s8)
80200250:	8fc20010 	lw	v0,16(s8)
80200254:	8c420004 	lw	v0,4(v0)
80200258:	24420001 	addiu	v0,v0,1
8020025c:	ac620004 	sw	v0,4(v1)
80200260:	93c20000 	lbu	v0,0(s8)
80200264:	2442fff7 	addiu	v0,v0,-9
80200268:	a3c20000 	sb	v0,0(s8)
8020026c:	0808008f 	j	8020023c <LzmaDecodeProperties+0xac>
80200270:	00000000 	nop
80200274:	8fc30010 	lw	v1,16(s8)
80200278:	93c20000 	lbu	v0,0(s8)
8020027c:	ac620000 	sw	v0,0(v1)
80200280:	afc00004 	sw	zero,4(s8)
80200284:	8fc20004 	lw	v0,4(s8)
80200288:	03c0e821 	move	sp,s8
8020028c:	8fbe0008 	lw	s8,8(sp)
80200290:	27bd0010 	addiu	sp,sp,16
80200294:	03e00008 	jr	ra
80200298:	00000000 	nop

8020029c <LzmaDecode>:
8020029c:	27bdff80 	addiu	sp,sp,-128
802002a0:	afbe0078 	sw	s8,120(sp)
802002a4:	03a0f021 	move	s8,sp
802002a8:	afc40080 	sw	a0,128(s8)
802002ac:	afc50084 	sw	a1,132(s8)
802002b0:	afc60088 	sw	a2,136(s8)
802002b4:	afc7008c 	sw	a3,140(s8)
802002b8:	8fc20080 	lw	v0,128(s8)
802002bc:	8c42000c 	lw	v0,12(v0)
802002c0:	afc20000 	sw	v0,0(s8)
802002c4:	afc00004 	sw	zero,4(s8)
802002c8:	a3c00008 	sb	zero,8(s8)
802002cc:	8fc20080 	lw	v0,128(s8)
802002d0:	24030001 	li	v1,1
802002d4:	8c420008 	lw	v0,8(v0)
802002d8:	00431004 	sllv	v0,v1,v0
802002dc:	2442ffff 	addiu	v0,v0,-1
802002e0:	afc2000c 	sw	v0,12(s8)
802002e4:	8fc20080 	lw	v0,128(s8)
802002e8:	24030001 	li	v1,1
802002ec:	8c420004 	lw	v0,4(v0)
802002f0:	00431004 	sllv	v0,v1,v0
802002f4:	2442ffff 	addiu	v0,v0,-1
802002f8:	afc20010 	sw	v0,16(s8)
802002fc:	8fc20080 	lw	v0,128(s8)
80200300:	8c420000 	lw	v0,0(v0)
80200304:	afc20014 	sw	v0,20(s8)
80200308:	afc00018 	sw	zero,24(s8)
8020030c:	24020001 	li	v0,1
80200310:	afc2001c 	sw	v0,28(s8)
80200314:	24020001 	li	v0,1
80200318:	afc20020 	sw	v0,32(s8)
8020031c:	24020001 	li	v0,1
80200320:	afc20024 	sw	v0,36(s8)
80200324:	24020001 	li	v0,1
80200328:	afc20028 	sw	v0,40(s8)
8020032c:	afc0002c 	sw	zero,44(s8)
80200330:	8fc2008c 	lw	v0,140(s8)
80200334:	ac400000 	sw	zero,0(v0)
80200338:	8fc20098 	lw	v0,152(s8)
8020033c:	ac400000 	sw	zero,0(v0)
80200340:	8fc20080 	lw	v0,128(s8)
80200344:	8c430004 	lw	v1,4(v0)
80200348:	8fc20014 	lw	v0,20(s8)
8020034c:	00621821 	addu	v1,v1,v0
80200350:	24020300 	li	v0,768
80200354:	00621004 	sllv	v0,v0,v1
80200358:	24420736 	addiu	v0,v0,1846
8020035c:	afc20044 	sw	v0,68(s8)
80200360:	afc00040 	sw	zero,64(s8)
80200364:	8fc20040 	lw	v0,64(s8)
80200368:	8fc30044 	lw	v1,68(s8)
8020036c:	0043102b 	sltu	v0,v0,v1
80200370:	1040000c 	beqz	v0,802003a4 <LzmaDecode+0x108>
80200374:	00000000 	nop
80200378:	8fc20040 	lw	v0,64(s8)
8020037c:	00021840 	sll	v1,v0,0x1
80200380:	8fc20000 	lw	v0,0(s8)
80200384:	00621821 	addu	v1,v1,v0
80200388:	24020400 	li	v0,1024
8020038c:	a4620000 	sh	v0,0(v1)
80200390:	8fc20040 	lw	v0,64(s8)
80200394:	24420001 	addiu	v0,v0,1
80200398:	afc20040 	sw	v0,64(s8)
8020039c:	080800d9 	j	80200364 <LzmaDecode+0xc8>
802003a0:	00000000 	nop
802003a4:	8fc20084 	lw	v0,132(s8)
802003a8:	afc20030 	sw	v0,48(s8)
802003ac:	8fc30084 	lw	v1,132(s8)
802003b0:	8fc20088 	lw	v0,136(s8)
802003b4:	00621021 	addu	v0,v1,v0
802003b8:	afc20034 	sw	v0,52(s8)
802003bc:	afc0003c 	sw	zero,60(s8)
802003c0:	2402ffff 	li	v0,-1
802003c4:	afc20038 	sw	v0,56(s8)
802003c8:	afc00044 	sw	zero,68(s8)
802003cc:	8fc20044 	lw	v0,68(s8)
802003d0:	28420005 	slti	v0,v0,5
802003d4:	10400018 	beqz	v0,80200438 <LzmaDecode+0x19c>
802003d8:	00000000 	nop
802003dc:	8fc30030 	lw	v1,48(s8)
802003e0:	8fc20034 	lw	v0,52(s8)
802003e4:	14620005 	bne	v1,v0,802003fc <LzmaDecode+0x160>
802003e8:	00000000 	nop
802003ec:	24020001 	li	v0,1
802003f0:	afc20060 	sw	v0,96(s8)
802003f4:	080806c4 	j	80201b10 <LzmaDecode+0x1874>
802003f8:	00000000 	nop
802003fc:	8fc2003c 	lw	v0,60(s8)
80200400:	00022200 	sll	a0,v0,0x8
80200404:	27c50030 	addiu	a1,s8,48
80200408:	8ca20000 	lw	v0,0(a1)
8020040c:	00401821 	move	v1,v0
80200410:	90630000 	lbu	v1,0(v1)
80200414:	00831825 	or	v1,a0,v1
80200418:	24420001 	addiu	v0,v0,1
8020041c:	aca20000 	sw	v0,0(a1)
80200420:	afc3003c 	sw	v1,60(s8)
80200424:	8fc20044 	lw	v0,68(s8)
80200428:	24420001 	addiu	v0,v0,1
8020042c:	afc20044 	sw	v0,68(s8)
80200430:	080800f3 	j	802003cc <LzmaDecode+0x130>
80200434:	00000000 	nop
80200438:	8fc20004 	lw	v0,4(s8)
8020043c:	8fc30094 	lw	v1,148(s8)
80200440:	0043102b 	sltu	v0,v0,v1
80200444:	1040058e 	beqz	v0,80201a80 <LzmaDecode+0x17e4>
80200448:	00000000 	nop
8020044c:	8fc30004 	lw	v1,4(s8)
80200450:	8fc2000c 	lw	v0,12(s8)
80200454:	00621024 	and	v0,v1,v0
80200458:	afc20048 	sw	v0,72(s8)
8020045c:	8fc20018 	lw	v0,24(s8)
80200460:	00021900 	sll	v1,v0,0x4
80200464:	8fc20048 	lw	v0,72(s8)
80200468:	00621021 	addu	v0,v1,v0
8020046c:	00021840 	sll	v1,v0,0x1
80200470:	8fc20000 	lw	v0,0(s8)
80200474:	00621021 	addu	v0,v1,v0
80200478:	afc20044 	sw	v0,68(s8)
8020047c:	8fc30038 	lw	v1,56(s8)
80200480:	3c0200ff 	lui	v0,0xff
80200484:	3442ffff 	ori	v0,v0,0xffff
80200488:	0043102b 	sltu	v0,v0,v1
8020048c:	14400016 	bnez	v0,802004e8 <LzmaDecode+0x24c>
80200490:	00000000 	nop
80200494:	8fc30030 	lw	v1,48(s8)
80200498:	8fc20034 	lw	v0,52(s8)
8020049c:	14620005 	bne	v1,v0,802004b4 <LzmaDecode+0x218>
802004a0:	00000000 	nop
802004a4:	24030001 	li	v1,1
802004a8:	afc30060 	sw	v1,96(s8)
802004ac:	080806c4 	j	80201b10 <LzmaDecode+0x1874>
802004b0:	00000000 	nop
802004b4:	8fc20038 	lw	v0,56(s8)
802004b8:	00021200 	sll	v0,v0,0x8
802004bc:	afc20038 	sw	v0,56(s8)
802004c0:	8fc2003c 	lw	v0,60(s8)
802004c4:	00022200 	sll	a0,v0,0x8
802004c8:	27c50030 	addiu	a1,s8,48
802004cc:	8ca20000 	lw	v0,0(a1)
802004d0:	00401821 	move	v1,v0
802004d4:	90630000 	lbu	v1,0(v1)
802004d8:	00831825 	or	v1,a0,v1
802004dc:	24420001 	addiu	v0,v0,1
802004e0:	aca20000 	sw	v0,0(a1)
802004e4:	afc3003c 	sw	v1,60(s8)
802004e8:	8fc20038 	lw	v0,56(s8)
802004ec:	00021ac2 	srl	v1,v0,0xb
802004f0:	8fc20044 	lw	v0,68(s8)
802004f4:	94420000 	lhu	v0,0(v0)
802004f8:	70621002 	mul	v0,v1,v0
802004fc:	afc20040 	sw	v0,64(s8)
80200500:	8fc3003c 	lw	v1,60(s8)
80200504:	8fc20040 	lw	v0,64(s8)
80200508:	0062102b 	sltu	v0,v1,v0
8020050c:	1040010d 	beqz	v0,80200944 <LzmaDecode+0x6a8>
80200510:	00000000 	nop
80200514:	24020001 	li	v0,1
80200518:	afc2004c 	sw	v0,76(s8)
8020051c:	8fc20040 	lw	v0,64(s8)
80200520:	afc20038 	sw	v0,56(s8)
80200524:	8fc40044 	lw	a0,68(s8)
80200528:	8fc50044 	lw	a1,68(s8)
8020052c:	8fc20044 	lw	v0,68(s8)
80200530:	94430000 	lhu	v1,0(v0)
80200534:	24020800 	li	v0,2048
80200538:	00431023 	subu	v0,v0,v1
8020053c:	00021143 	sra	v0,v0,0x5
80200540:	94a30000 	lhu	v1,0(a1)
80200544:	00621021 	addu	v0,v1,v0
80200548:	a4820000 	sh	v0,0(a0)
8020054c:	8fc30004 	lw	v1,4(s8)
80200550:	8fc20010 	lw	v0,16(s8)
80200554:	00621824 	and	v1,v1,v0
80200558:	8fc20014 	lw	v0,20(s8)
8020055c:	00432804 	sllv	a1,v1,v0
80200560:	93c40008 	lbu	a0,8(s8)
80200564:	24030008 	li	v1,8
80200568:	8fc20014 	lw	v0,20(s8)
8020056c:	00621023 	subu	v0,v1,v0
80200570:	00441007 	srav	v0,a0,v0
80200574:	00a21821 	addu	v1,a1,v0
80200578:	00601021 	move	v0,v1
8020057c:	00021040 	sll	v0,v0,0x1
80200580:	00431021 	addu	v0,v0,v1
80200584:	00021a40 	sll	v1,v0,0x9
80200588:	8fc20000 	lw	v0,0(s8)
8020058c:	00621021 	addu	v0,v1,v0
80200590:	24420e6c 	addiu	v0,v0,3692
80200594:	afc20044 	sw	v0,68(s8)
80200598:	8fc20018 	lw	v0,24(s8)
8020059c:	28420007 	slti	v0,v0,7
802005a0:	14400071 	bnez	v0,80200768 <LzmaDecode+0x4cc>
802005a4:	00000000 	nop
802005a8:	8fc30004 	lw	v1,4(s8)
802005ac:	8fc2001c 	lw	v0,28(s8)
802005b0:	00621823 	subu	v1,v1,v0
802005b4:	8fc20090 	lw	v0,144(s8)
802005b8:	00621021 	addu	v0,v1,v0
802005bc:	90420000 	lbu	v0,0(v0)
802005c0:	afc20050 	sw	v0,80(s8)
802005c4:	8fc20050 	lw	v0,80(s8)
802005c8:	00021040 	sll	v0,v0,0x1
802005cc:	afc20050 	sw	v0,80(s8)
802005d0:	8fc20050 	lw	v0,80(s8)
802005d4:	30420100 	andi	v0,v0,0x100
802005d8:	afc20054 	sw	v0,84(s8)
802005dc:	8fc20054 	lw	v0,84(s8)
802005e0:	00021840 	sll	v1,v0,0x1
802005e4:	8fc20044 	lw	v0,68(s8)
802005e8:	00621821 	addu	v1,v1,v0
802005ec:	8fc2004c 	lw	v0,76(s8)
802005f0:	00021040 	sll	v0,v0,0x1
802005f4:	00621021 	addu	v0,v1,v0
802005f8:	24420200 	addiu	v0,v0,512
802005fc:	afc20058 	sw	v0,88(s8)
80200600:	8fc30038 	lw	v1,56(s8)
80200604:	3c0200ff 	lui	v0,0xff
80200608:	3442ffff 	ori	v0,v0,0xffff
8020060c:	0043102b 	sltu	v0,v0,v1
80200610:	14400016 	bnez	v0,8020066c <LzmaDecode+0x3d0>
80200614:	00000000 	nop
80200618:	8fc30030 	lw	v1,48(s8)
8020061c:	8fc20034 	lw	v0,52(s8)
80200620:	14620005 	bne	v1,v0,80200638 <LzmaDecode+0x39c>
80200624:	00000000 	nop
80200628:	24020001 	li	v0,1
8020062c:	afc20060 	sw	v0,96(s8)
80200630:	080806c4 	j	80201b10 <LzmaDecode+0x1874>
80200634:	00000000 	nop
80200638:	8fc20038 	lw	v0,56(s8)
8020063c:	00021200 	sll	v0,v0,0x8
80200640:	afc20038 	sw	v0,56(s8)
80200644:	8fc2003c 	lw	v0,60(s8)
80200648:	00022200 	sll	a0,v0,0x8
8020064c:	27c50030 	addiu	a1,s8,48
80200650:	8ca20000 	lw	v0,0(a1)
80200654:	00401821 	move	v1,v0
80200658:	90630000 	lbu	v1,0(v1)
8020065c:	00831825 	or	v1,a0,v1
80200660:	24420001 	addiu	v0,v0,1
80200664:	aca20000 	sw	v0,0(a1)
80200668:	afc3003c 	sw	v1,60(s8)
8020066c:	8fc20038 	lw	v0,56(s8)
80200670:	00021ac2 	srl	v1,v0,0xb
80200674:	8fc20058 	lw	v0,88(s8)
80200678:	94420000 	lhu	v0,0(v0)
8020067c:	70621002 	mul	v0,v1,v0
80200680:	afc20040 	sw	v0,64(s8)
80200684:	8fc3003c 	lw	v1,60(s8)
80200688:	8fc20040 	lw	v0,64(s8)
8020068c:	0062102b 	sltu	v0,v1,v0
80200690:	10400015 	beqz	v0,802006e8 <LzmaDecode+0x44c>
80200694:	00000000 	nop
80200698:	8fc20040 	lw	v0,64(s8)
8020069c:	afc20038 	sw	v0,56(s8)
802006a0:	8fc40058 	lw	a0,88(s8)
802006a4:	8fc50058 	lw	a1,88(s8)
802006a8:	8fc20058 	lw	v0,88(s8)
802006ac:	94430000 	lhu	v1,0(v0)
802006b0:	24020800 	li	v0,2048
802006b4:	00431023 	subu	v0,v0,v1
802006b8:	00021143 	sra	v0,v0,0x5
802006bc:	94a30000 	lhu	v1,0(a1)
802006c0:	00621021 	addu	v0,v1,v0
802006c4:	a4820000 	sh	v0,0(a0)
802006c8:	8fc2004c 	lw	v0,76(s8)
802006cc:	00021040 	sll	v0,v0,0x1
802006d0:	afc2004c 	sw	v0,76(s8)
802006d4:	8fc20054 	lw	v0,84(s8)
802006d8:	1040001d 	beqz	v0,80200750 <LzmaDecode+0x4b4>
802006dc:	00000000 	nop
802006e0:	080801da 	j	80200768 <LzmaDecode+0x4cc>
802006e4:	00000000 	nop
802006e8:	8fc30038 	lw	v1,56(s8)
802006ec:	8fc20040 	lw	v0,64(s8)
802006f0:	00621023 	subu	v0,v1,v0
802006f4:	afc20038 	sw	v0,56(s8)
802006f8:	8fc3003c 	lw	v1,60(s8)
802006fc:	8fc20040 	lw	v0,64(s8)
80200700:	00621023 	subu	v0,v1,v0
80200704:	afc2003c 	sw	v0,60(s8)
80200708:	8fc40058 	lw	a0,88(s8)
8020070c:	8fc30058 	lw	v1,88(s8)
80200710:	8fc20058 	lw	v0,88(s8)
80200714:	94420000 	lhu	v0,0(v0)
80200718:	00021142 	srl	v0,v0,0x5
8020071c:	94630000 	lhu	v1,0(v1)
80200720:	00621023 	subu	v0,v1,v0
80200724:	a4820000 	sh	v0,0(a0)
80200728:	8fc3004c 	lw	v1,76(s8)
8020072c:	8fc2004c 	lw	v0,76(s8)
80200730:	00621021 	addu	v0,v1,v0
80200734:	24420001 	addiu	v0,v0,1
80200738:	afc2004c 	sw	v0,76(s8)
8020073c:	8fc20054 	lw	v0,84(s8)
80200740:	14400003 	bnez	v0,80200750 <LzmaDecode+0x4b4>
80200744:	00000000 	nop
80200748:	080801da 	j	80200768 <LzmaDecode+0x4cc>
8020074c:	00000000 	nop
80200750:	8fc2004c 	lw	v0,76(s8)
80200754:	28420100 	slti	v0,v0,256
80200758:	10400003 	beqz	v0,80200768 <LzmaDecode+0x4cc>
8020075c:	00000000 	nop
80200760:	08080171 	j	802005c4 <LzmaDecode+0x328>
80200764:	00000000 	nop
80200768:	8fc2004c 	lw	v0,76(s8)
8020076c:	28420100 	slti	v0,v0,256
80200770:	10400054 	beqz	v0,802008c4 <LzmaDecode+0x628>
80200774:	00000000 	nop
80200778:	8fc2004c 	lw	v0,76(s8)
8020077c:	00021840 	sll	v1,v0,0x1
80200780:	8fc20044 	lw	v0,68(s8)
80200784:	00621021 	addu	v0,v1,v0
80200788:	afc20058 	sw	v0,88(s8)
8020078c:	8fc30038 	lw	v1,56(s8)
80200790:	3c0200ff 	lui	v0,0xff
80200794:	3442ffff 	ori	v0,v0,0xffff
80200798:	0043102b 	sltu	v0,v0,v1
8020079c:	14400016 	bnez	v0,802007f8 <LzmaDecode+0x55c>
802007a0:	00000000 	nop
802007a4:	8fc30030 	lw	v1,48(s8)
802007a8:	8fc20034 	lw	v0,52(s8)
802007ac:	14620005 	bne	v1,v0,802007c4 <LzmaDecode+0x528>
802007b0:	00000000 	nop
802007b4:	24020001 	li	v0,1
802007b8:	afc20060 	sw	v0,96(s8)
802007bc:	080806c4 	j	80201b10 <LzmaDecode+0x1874>
802007c0:	00000000 	nop
802007c4:	8fc20038 	lw	v0,56(s8)
802007c8:	00021200 	sll	v0,v0,0x8
802007cc:	afc20038 	sw	v0,56(s8)
802007d0:	8fc2003c 	lw	v0,60(s8)
802007d4:	00022200 	sll	a0,v0,0x8
802007d8:	27c50030 	addiu	a1,s8,48
802007dc:	8ca20000 	lw	v0,0(a1)
802007e0:	00401821 	move	v1,v0
802007e4:	90630000 	lbu	v1,0(v1)
802007e8:	00831825 	or	v1,a0,v1
802007ec:	24420001 	addiu	v0,v0,1
802007f0:	aca20000 	sw	v0,0(a1)
802007f4:	afc3003c 	sw	v1,60(s8)
802007f8:	8fc20038 	lw	v0,56(s8)
802007fc:	00021ac2 	srl	v1,v0,0xb
80200800:	8fc20058 	lw	v0,88(s8)
80200804:	94420000 	lhu	v0,0(v0)
80200808:	70621002 	mul	v0,v1,v0
8020080c:	afc20040 	sw	v0,64(s8)
80200810:	8fc3003c 	lw	v1,60(s8)
80200814:	8fc20040 	lw	v0,64(s8)
80200818:	0062102b 	sltu	v0,v1,v0
8020081c:	10400012 	beqz	v0,80200868 <LzmaDecode+0x5cc>
80200820:	00000000 	nop
80200824:	8fc20040 	lw	v0,64(s8)
80200828:	afc20038 	sw	v0,56(s8)
8020082c:	8fc40058 	lw	a0,88(s8)
80200830:	8fc50058 	lw	a1,88(s8)
80200834:	8fc20058 	lw	v0,88(s8)
80200838:	94430000 	lhu	v1,0(v0)
8020083c:	24020800 	li	v0,2048
80200840:	00431023 	subu	v0,v0,v1
80200844:	00021143 	sra	v0,v0,0x5
80200848:	94a30000 	lhu	v1,0(a1)
8020084c:	00621021 	addu	v0,v1,v0
80200850:	a4820000 	sh	v0,0(a0)
80200854:	8fc2004c 	lw	v0,76(s8)
80200858:	00021040 	sll	v0,v0,0x1
8020085c:	afc2004c 	sw	v0,76(s8)
80200860:	080801da 	j	80200768 <LzmaDecode+0x4cc>
80200864:	00000000 	nop
80200868:	8fc30038 	lw	v1,56(s8)
8020086c:	8fc20040 	lw	v0,64(s8)
80200870:	00621023 	subu	v0,v1,v0
80200874:	afc20038 	sw	v0,56(s8)
80200878:	8fc3003c 	lw	v1,60(s8)
8020087c:	8fc20040 	lw	v0,64(s8)
80200880:	00621023 	subu	v0,v1,v0
80200884:	afc2003c 	sw	v0,60(s8)
80200888:	8fc40058 	lw	a0,88(s8)
8020088c:	8fc30058 	lw	v1,88(s8)
80200890:	8fc20058 	lw	v0,88(s8)
80200894:	94420000 	lhu	v0,0(v0)
80200898:	00021142 	srl	v0,v0,0x5
8020089c:	94630000 	lhu	v1,0(v1)
802008a0:	00621023 	subu	v0,v1,v0
802008a4:	a4820000 	sh	v0,0(a0)
802008a8:	8fc3004c 	lw	v1,76(s8)
802008ac:	8fc2004c 	lw	v0,76(s8)
802008b0:	00621021 	addu	v0,v1,v0
802008b4:	24420001 	addiu	v0,v0,1
802008b8:	afc2004c 	sw	v0,76(s8)
802008bc:	080801da 	j	80200768 <LzmaDecode+0x4cc>
802008c0:	00000000 	nop
802008c4:	8fc2004c 	lw	v0,76(s8)
802008c8:	a3c20008 	sb	v0,8(s8)
802008cc:	27c50004 	addiu	a1,s8,4
802008d0:	8ca30000 	lw	v1,0(a1)
802008d4:	00602021 	move	a0,v1
802008d8:	8fc20090 	lw	v0,144(s8)
802008dc:	00822021 	addu	a0,a0,v0
802008e0:	93c20008 	lbu	v0,8(s8)
802008e4:	a0820000 	sb	v0,0(a0)
802008e8:	24630001 	addiu	v1,v1,1
802008ec:	aca30000 	sw	v1,0(a1)
802008f0:	8fc20018 	lw	v0,24(s8)
802008f4:	28420004 	slti	v0,v0,4
802008f8:	10400004 	beqz	v0,8020090c <LzmaDecode+0x670>
802008fc:	00000000 	nop
80200900:	afc00018 	sw	zero,24(s8)
80200904:	0808010e 	j	80200438 <LzmaDecode+0x19c>
80200908:	00000000 	nop
8020090c:	8fc20018 	lw	v0,24(s8)
80200910:	2842000a 	slti	v0,v0,10
80200914:	10400006 	beqz	v0,80200930 <LzmaDecode+0x694>
80200918:	00000000 	nop
8020091c:	8fc20018 	lw	v0,24(s8)
80200920:	2442fffd 	addiu	v0,v0,-3
80200924:	afc20018 	sw	v0,24(s8)
80200928:	0808010e 	j	80200438 <LzmaDecode+0x19c>
8020092c:	00000000 	nop
80200930:	8fc20018 	lw	v0,24(s8)
80200934:	2442fffa 	addiu	v0,v0,-6
80200938:	afc20018 	sw	v0,24(s8)
8020093c:	0808010e 	j	80200438 <LzmaDecode+0x19c>
80200940:	00000000 	nop
80200944:	8fc30038 	lw	v1,56(s8)
80200948:	8fc20040 	lw	v0,64(s8)
8020094c:	00621023 	subu	v0,v1,v0
80200950:	afc20038 	sw	v0,56(s8)
80200954:	8fc3003c 	lw	v1,60(s8)
80200958:	8fc20040 	lw	v0,64(s8)
8020095c:	00621023 	subu	v0,v1,v0
80200960:	afc2003c 	sw	v0,60(s8)
80200964:	8fc40044 	lw	a0,68(s8)
80200968:	8fc30044 	lw	v1,68(s8)
8020096c:	8fc20044 	lw	v0,68(s8)
80200970:	94420000 	lhu	v0,0(v0)
80200974:	00021142 	srl	v0,v0,0x5
80200978:	94630000 	lhu	v1,0(v1)
8020097c:	00621023 	subu	v0,v1,v0
80200980:	a4820000 	sh	v0,0(a0)
80200984:	8fc20018 	lw	v0,24(s8)
80200988:	00021840 	sll	v1,v0,0x1
8020098c:	8fc20000 	lw	v0,0(s8)
80200990:	00621021 	addu	v0,v1,v0
80200994:	24420180 	addiu	v0,v0,384
80200998:	afc20044 	sw	v0,68(s8)
8020099c:	8fc30038 	lw	v1,56(s8)
802009a0:	3c0200ff 	lui	v0,0xff
802009a4:	3442ffff 	ori	v0,v0,0xffff
802009a8:	0043102b 	sltu	v0,v0,v1
802009ac:	14400016 	bnez	v0,80200a08 <LzmaDecode+0x76c>
802009b0:	00000000 	nop
802009b4:	8fc30030 	lw	v1,48(s8)
802009b8:	8fc20034 	lw	v0,52(s8)
802009bc:	14620005 	bne	v1,v0,802009d4 <LzmaDecode+0x738>
802009c0:	00000000 	nop
802009c4:	24020001 	li	v0,1
802009c8:	afc20060 	sw	v0,96(s8)
802009cc:	080806c4 	j	80201b10 <LzmaDecode+0x1874>
802009d0:	00000000 	nop
802009d4:	8fc20038 	lw	v0,56(s8)
802009d8:	00021200 	sll	v0,v0,0x8
802009dc:	afc20038 	sw	v0,56(s8)
802009e0:	8fc2003c 	lw	v0,60(s8)
802009e4:	00022200 	sll	a0,v0,0x8
802009e8:	27c50030 	addiu	a1,s8,48
802009ec:	8ca20000 	lw	v0,0(a1)
802009f0:	00401821 	move	v1,v0
802009f4:	90630000 	lbu	v1,0(v1)
802009f8:	00831825 	or	v1,a0,v1
802009fc:	24420001 	addiu	v0,v0,1
80200a00:	aca20000 	sw	v0,0(a1)
80200a04:	afc3003c 	sw	v1,60(s8)
80200a08:	8fc20038 	lw	v0,56(s8)
80200a0c:	00021ac2 	srl	v1,v0,0xb
80200a10:	8fc20044 	lw	v0,68(s8)
80200a14:	94420000 	lhu	v0,0(v0)
80200a18:	70621002 	mul	v0,v1,v0
80200a1c:	afc20040 	sw	v0,64(s8)
80200a20:	8fc3003c 	lw	v1,60(s8)
80200a24:	8fc20040 	lw	v0,64(s8)
80200a28:	0062102b 	sltu	v0,v1,v0
80200a2c:	10400023 	beqz	v0,80200abc <LzmaDecode+0x820>
80200a30:	00000000 	nop
80200a34:	8fc20040 	lw	v0,64(s8)
80200a38:	afc20038 	sw	v0,56(s8)
80200a3c:	8fc40044 	lw	a0,68(s8)
80200a40:	8fc50044 	lw	a1,68(s8)
80200a44:	8fc20044 	lw	v0,68(s8)
80200a48:	94430000 	lhu	v1,0(v0)
80200a4c:	24020800 	li	v0,2048
80200a50:	00431023 	subu	v0,v0,v1
80200a54:	00021143 	sra	v0,v0,0x5
80200a58:	94a30000 	lhu	v1,0(a1)
80200a5c:	00621021 	addu	v0,v1,v0
80200a60:	a4820000 	sh	v0,0(a0)
80200a64:	8fc20024 	lw	v0,36(s8)
80200a68:	afc20028 	sw	v0,40(s8)
80200a6c:	8fc20020 	lw	v0,32(s8)
80200a70:	afc20024 	sw	v0,36(s8)
80200a74:	8fc2001c 	lw	v0,28(s8)
80200a78:	afc20020 	sw	v0,32(s8)
80200a7c:	8fc20018 	lw	v0,24(s8)
80200a80:	28420007 	slti	v0,v0,7
80200a84:	10400004 	beqz	v0,80200a98 <LzmaDecode+0x7fc>
80200a88:	00000000 	nop
80200a8c:	afc00064 	sw	zero,100(s8)
80200a90:	080802a8 	j	80200aa0 <LzmaDecode+0x804>
80200a94:	00000000 	nop
80200a98:	24020003 	li	v0,3
80200a9c:	afc20064 	sw	v0,100(s8)
80200aa0:	8fc30064 	lw	v1,100(s8)
80200aa4:	afc30018 	sw	v1,24(s8)
80200aa8:	8fc20000 	lw	v0,0(s8)
80200aac:	24420664 	addiu	v0,v0,1636
80200ab0:	afc20044 	sw	v0,68(s8)
80200ab4:	0808042a 	j	802010a8 <LzmaDecode+0xe0c>
80200ab8:	00000000 	nop
80200abc:	8fc30038 	lw	v1,56(s8)
80200ac0:	8fc20040 	lw	v0,64(s8)
80200ac4:	00621023 	subu	v0,v1,v0
80200ac8:	afc20038 	sw	v0,56(s8)
80200acc:	8fc3003c 	lw	v1,60(s8)
80200ad0:	8fc20040 	lw	v0,64(s8)
80200ad4:	00621023 	subu	v0,v1,v0
80200ad8:	afc2003c 	sw	v0,60(s8)
80200adc:	8fc40044 	lw	a0,68(s8)
80200ae0:	8fc30044 	lw	v1,68(s8)
80200ae4:	8fc20044 	lw	v0,68(s8)
80200ae8:	94420000 	lhu	v0,0(v0)
80200aec:	00021142 	srl	v0,v0,0x5
80200af0:	94630000 	lhu	v1,0(v1)
80200af4:	00621023 	subu	v0,v1,v0
80200af8:	a4820000 	sh	v0,0(a0)
80200afc:	8fc20018 	lw	v0,24(s8)
80200b00:	00021840 	sll	v1,v0,0x1
80200b04:	8fc20000 	lw	v0,0(s8)
80200b08:	00621021 	addu	v0,v1,v0
80200b0c:	24420198 	addiu	v0,v0,408
80200b10:	afc20044 	sw	v0,68(s8)
80200b14:	8fc30038 	lw	v1,56(s8)
80200b18:	3c0200ff 	lui	v0,0xff
80200b1c:	3442ffff 	ori	v0,v0,0xffff
80200b20:	0043102b 	sltu	v0,v0,v1
80200b24:	14400016 	bnez	v0,80200b80 <LzmaDecode+0x8e4>
80200b28:	00000000 	nop
80200b2c:	8fc30030 	lw	v1,48(s8)
80200b30:	8fc20034 	lw	v0,52(s8)
80200b34:	14620005 	bne	v1,v0,80200b4c <LzmaDecode+0x8b0>
80200b38:	00000000 	nop
80200b3c:	24020001 	li	v0,1
80200b40:	afc20060 	sw	v0,96(s8)
80200b44:	080806c4 	j	80201b10 <LzmaDecode+0x1874>
80200b48:	00000000 	nop
80200b4c:	8fc20038 	lw	v0,56(s8)
80200b50:	00021200 	sll	v0,v0,0x8
80200b54:	afc20038 	sw	v0,56(s8)
80200b58:	8fc2003c 	lw	v0,60(s8)
80200b5c:	00022200 	sll	a0,v0,0x8
80200b60:	27c50030 	addiu	a1,s8,48
80200b64:	8ca20000 	lw	v0,0(a1)
80200b68:	00401821 	move	v1,v0
80200b6c:	90630000 	lbu	v1,0(v1)
80200b70:	00831825 	or	v1,a0,v1
80200b74:	24420001 	addiu	v0,v0,1
80200b78:	aca20000 	sw	v0,0(a1)
80200b7c:	afc3003c 	sw	v1,60(s8)
80200b80:	8fc20038 	lw	v0,56(s8)
80200b84:	00021ac2 	srl	v1,v0,0xb
80200b88:	8fc20044 	lw	v0,68(s8)
80200b8c:	94420000 	lhu	v0,0(v0)
80200b90:	70621002 	mul	v0,v1,v0
80200b94:	afc20040 	sw	v0,64(s8)
80200b98:	8fc3003c 	lw	v1,60(s8)
80200b9c:	8fc20040 	lw	v0,64(s8)
80200ba0:	0062102b 	sltu	v0,v1,v0
80200ba4:	1040007f 	beqz	v0,80200da4 <LzmaDecode+0xb08>
80200ba8:	00000000 	nop
80200bac:	8fc20040 	lw	v0,64(s8)
80200bb0:	afc20038 	sw	v0,56(s8)
80200bb4:	8fc40044 	lw	a0,68(s8)
80200bb8:	8fc50044 	lw	a1,68(s8)
80200bbc:	8fc20044 	lw	v0,68(s8)
80200bc0:	94430000 	lhu	v1,0(v0)
80200bc4:	24020800 	li	v0,2048
80200bc8:	00431023 	subu	v0,v0,v1
80200bcc:	00021143 	sra	v0,v0,0x5
80200bd0:	94a30000 	lhu	v1,0(a1)
80200bd4:	00621021 	addu	v0,v1,v0
80200bd8:	a4820000 	sh	v0,0(a0)
80200bdc:	8fc20018 	lw	v0,24(s8)
80200be0:	00021940 	sll	v1,v0,0x5
80200be4:	8fc20000 	lw	v0,0(s8)
80200be8:	00621821 	addu	v1,v1,v0
80200bec:	8fc20048 	lw	v0,72(s8)
80200bf0:	00021040 	sll	v0,v0,0x1
80200bf4:	00621021 	addu	v0,v1,v0
80200bf8:	244201e0 	addiu	v0,v0,480
80200bfc:	afc20044 	sw	v0,68(s8)
80200c00:	8fc30038 	lw	v1,56(s8)
80200c04:	3c0200ff 	lui	v0,0xff
80200c08:	3442ffff 	ori	v0,v0,0xffff
80200c0c:	0043102b 	sltu	v0,v0,v1
80200c10:	14400016 	bnez	v0,80200c6c <LzmaDecode+0x9d0>
80200c14:	00000000 	nop
80200c18:	8fc30030 	lw	v1,48(s8)
80200c1c:	8fc20034 	lw	v0,52(s8)
80200c20:	14620005 	bne	v1,v0,80200c38 <LzmaDecode+0x99c>
80200c24:	00000000 	nop
80200c28:	24020001 	li	v0,1
80200c2c:	afc20060 	sw	v0,96(s8)
80200c30:	080806c4 	j	80201b10 <LzmaDecode+0x1874>
80200c34:	00000000 	nop
80200c38:	8fc20038 	lw	v0,56(s8)
80200c3c:	00021200 	sll	v0,v0,0x8
80200c40:	afc20038 	sw	v0,56(s8)
80200c44:	8fc2003c 	lw	v0,60(s8)
80200c48:	00022200 	sll	a0,v0,0x8
80200c4c:	27c50030 	addiu	a1,s8,48
80200c50:	8ca20000 	lw	v0,0(a1)
80200c54:	00401821 	move	v1,v0
80200c58:	90630000 	lbu	v1,0(v1)
80200c5c:	00831825 	or	v1,a0,v1
80200c60:	24420001 	addiu	v0,v0,1
80200c64:	aca20000 	sw	v0,0(a1)
80200c68:	afc3003c 	sw	v1,60(s8)
80200c6c:	8fc20038 	lw	v0,56(s8)
80200c70:	00021ac2 	srl	v1,v0,0xb
80200c74:	8fc20044 	lw	v0,68(s8)
80200c78:	94420000 	lhu	v0,0(v0)
80200c7c:	70621002 	mul	v0,v1,v0
80200c80:	afc20040 	sw	v0,64(s8)
80200c84:	8fc3003c 	lw	v1,60(s8)
80200c88:	8fc20040 	lw	v0,64(s8)
80200c8c:	0062102b 	sltu	v0,v1,v0
80200c90:	10400032 	beqz	v0,80200d5c <LzmaDecode+0xac0>
80200c94:	00000000 	nop
80200c98:	8fc20040 	lw	v0,64(s8)
80200c9c:	afc20038 	sw	v0,56(s8)
80200ca0:	8fc40044 	lw	a0,68(s8)
80200ca4:	8fc50044 	lw	a1,68(s8)
80200ca8:	8fc20044 	lw	v0,68(s8)
80200cac:	94430000 	lhu	v1,0(v0)
80200cb0:	24020800 	li	v0,2048
80200cb4:	00431023 	subu	v0,v0,v1
80200cb8:	00021143 	sra	v0,v0,0x5
80200cbc:	94a30000 	lhu	v1,0(a1)
80200cc0:	00621021 	addu	v0,v1,v0
80200cc4:	a4820000 	sh	v0,0(a0)
80200cc8:	8fc20004 	lw	v0,4(s8)
80200ccc:	14400005 	bnez	v0,80200ce4 <LzmaDecode+0xa48>
80200cd0:	00000000 	nop
80200cd4:	24020001 	li	v0,1
80200cd8:	afc20060 	sw	v0,96(s8)
80200cdc:	080806c4 	j	80201b10 <LzmaDecode+0x1874>
80200ce0:	00000000 	nop
80200ce4:	8fc20018 	lw	v0,24(s8)
80200ce8:	28420007 	slti	v0,v0,7
80200cec:	10400005 	beqz	v0,80200d04 <LzmaDecode+0xa68>
80200cf0:	00000000 	nop
80200cf4:	24030009 	li	v1,9
80200cf8:	afc30068 	sw	v1,104(s8)
80200cfc:	08080343 	j	80200d0c <LzmaDecode+0xa70>
80200d00:	00000000 	nop
80200d04:	2402000b 	li	v0,11
80200d08:	afc20068 	sw	v0,104(s8)
80200d0c:	8fc30068 	lw	v1,104(s8)
80200d10:	afc30018 	sw	v1,24(s8)
80200d14:	8fc30004 	lw	v1,4(s8)
80200d18:	8fc2001c 	lw	v0,28(s8)
80200d1c:	00621823 	subu	v1,v1,v0
80200d20:	8fc20090 	lw	v0,144(s8)
80200d24:	00621021 	addu	v0,v1,v0
80200d28:	90420000 	lbu	v0,0(v0)
80200d2c:	a3c20008 	sb	v0,8(s8)
80200d30:	27c50004 	addiu	a1,s8,4
80200d34:	8ca30000 	lw	v1,0(a1)
80200d38:	00602021 	move	a0,v1
80200d3c:	8fc20090 	lw	v0,144(s8)
80200d40:	00822021 	addu	a0,a0,v0
80200d44:	93c20008 	lbu	v0,8(s8)
80200d48:	a0820000 	sb	v0,0(a0)
80200d4c:	24630001 	addiu	v1,v1,1
80200d50:	aca30000 	sw	v1,0(a1)
80200d54:	0808010e 	j	80200438 <LzmaDecode+0x19c>
80200d58:	00000000 	nop
80200d5c:	8fc30038 	lw	v1,56(s8)
80200d60:	8fc20040 	lw	v0,64(s8)
80200d64:	00621023 	subu	v0,v1,v0
80200d68:	afc20038 	sw	v0,56(s8)
80200d6c:	8fc3003c 	lw	v1,60(s8)
80200d70:	8fc20040 	lw	v0,64(s8)
80200d74:	00621023 	subu	v0,v1,v0
80200d78:	afc2003c 	sw	v0,60(s8)
80200d7c:	8fc40044 	lw	a0,68(s8)
80200d80:	8fc30044 	lw	v1,68(s8)
80200d84:	8fc20044 	lw	v0,68(s8)
80200d88:	94420000 	lhu	v0,0(v0)
80200d8c:	00021142 	srl	v0,v0,0x5
80200d90:	94630000 	lhu	v1,0(v1)
80200d94:	00621023 	subu	v0,v1,v0
80200d98:	a4820000 	sh	v0,0(a0)
80200d9c:	0808041b 	j	8020106c <LzmaDecode+0xdd0>
80200da0:	00000000 	nop
80200da4:	8fc30038 	lw	v1,56(s8)
80200da8:	8fc20040 	lw	v0,64(s8)
80200dac:	00621023 	subu	v0,v1,v0
80200db0:	afc20038 	sw	v0,56(s8)
80200db4:	8fc3003c 	lw	v1,60(s8)
80200db8:	8fc20040 	lw	v0,64(s8)
80200dbc:	00621023 	subu	v0,v1,v0
80200dc0:	afc2003c 	sw	v0,60(s8)
80200dc4:	8fc40044 	lw	a0,68(s8)
80200dc8:	8fc30044 	lw	v1,68(s8)
80200dcc:	8fc20044 	lw	v0,68(s8)
80200dd0:	94420000 	lhu	v0,0(v0)
80200dd4:	00021142 	srl	v0,v0,0x5
80200dd8:	94630000 	lhu	v1,0(v1)
80200ddc:	00621023 	subu	v0,v1,v0
80200de0:	a4820000 	sh	v0,0(a0)
80200de4:	8fc20018 	lw	v0,24(s8)
80200de8:	00021840 	sll	v1,v0,0x1
80200dec:	8fc20000 	lw	v0,0(s8)
80200df0:	00621021 	addu	v0,v1,v0
80200df4:	244201b0 	addiu	v0,v0,432
80200df8:	afc20044 	sw	v0,68(s8)
80200dfc:	8fc30038 	lw	v1,56(s8)
80200e00:	3c0200ff 	lui	v0,0xff
80200e04:	3442ffff 	ori	v0,v0,0xffff
80200e08:	0043102b 	sltu	v0,v0,v1
80200e0c:	14400016 	bnez	v0,80200e68 <LzmaDecode+0xbcc>
80200e10:	00000000 	nop
80200e14:	8fc30030 	lw	v1,48(s8)
80200e18:	8fc20034 	lw	v0,52(s8)
80200e1c:	14620005 	bne	v1,v0,80200e34 <LzmaDecode+0xb98>
80200e20:	00000000 	nop
80200e24:	24020001 	li	v0,1
80200e28:	afc20060 	sw	v0,96(s8)
80200e2c:	080806c4 	j	80201b10 <LzmaDecode+0x1874>
80200e30:	00000000 	nop
80200e34:	8fc20038 	lw	v0,56(s8)
80200e38:	00021200 	sll	v0,v0,0x8
80200e3c:	afc20038 	sw	v0,56(s8)
80200e40:	8fc2003c 	lw	v0,60(s8)
80200e44:	00022200 	sll	a0,v0,0x8
80200e48:	27c50030 	addiu	a1,s8,48
80200e4c:	8ca20000 	lw	v0,0(a1)
80200e50:	00401821 	move	v1,v0
80200e54:	90630000 	lbu	v1,0(v1)
80200e58:	00831825 	or	v1,a0,v1
80200e5c:	24420001 	addiu	v0,v0,1
80200e60:	aca20000 	sw	v0,0(a1)
80200e64:	afc3003c 	sw	v1,60(s8)
80200e68:	8fc20038 	lw	v0,56(s8)
80200e6c:	00021ac2 	srl	v1,v0,0xb
80200e70:	8fc20044 	lw	v0,68(s8)
80200e74:	94420000 	lhu	v0,0(v0)
80200e78:	70621002 	mul	v0,v1,v0
80200e7c:	afc20040 	sw	v0,64(s8)
80200e80:	8fc3003c 	lw	v1,60(s8)
80200e84:	8fc20040 	lw	v0,64(s8)
80200e88:	0062102b 	sltu	v0,v1,v0
80200e8c:	10400011 	beqz	v0,80200ed4 <LzmaDecode+0xc38>
80200e90:	00000000 	nop
80200e94:	8fc20040 	lw	v0,64(s8)
80200e98:	afc20038 	sw	v0,56(s8)
80200e9c:	8fc40044 	lw	a0,68(s8)
80200ea0:	8fc50044 	lw	a1,68(s8)
80200ea4:	8fc20044 	lw	v0,68(s8)
80200ea8:	94430000 	lhu	v1,0(v0)
80200eac:	24020800 	li	v0,2048
80200eb0:	00431023 	subu	v0,v0,v1
80200eb4:	00021143 	sra	v0,v0,0x5
80200eb8:	94a30000 	lhu	v1,0(a1)
80200ebc:	00621021 	addu	v0,v1,v0
80200ec0:	a4820000 	sh	v0,0(a0)
80200ec4:	8fc20020 	lw	v0,32(s8)
80200ec8:	afc20058 	sw	v0,88(s8)
80200ecc:	08080417 	j	8020105c <LzmaDecode+0xdc0>
80200ed0:	00000000 	nop
80200ed4:	8fc30038 	lw	v1,56(s8)
80200ed8:	8fc20040 	lw	v0,64(s8)
80200edc:	00621023 	subu	v0,v1,v0
80200ee0:	afc20038 	sw	v0,56(s8)
80200ee4:	8fc3003c 	lw	v1,60(s8)
80200ee8:	8fc20040 	lw	v0,64(s8)
80200eec:	00621023 	subu	v0,v1,v0
80200ef0:	afc2003c 	sw	v0,60(s8)
80200ef4:	8fc40044 	lw	a0,68(s8)
80200ef8:	8fc30044 	lw	v1,68(s8)
80200efc:	8fc20044 	lw	v0,68(s8)
80200f00:	94420000 	lhu	v0,0(v0)
80200f04:	00021142 	srl	v0,v0,0x5
80200f08:	94630000 	lhu	v1,0(v1)
80200f0c:	00621023 	subu	v0,v1,v0
80200f10:	a4820000 	sh	v0,0(a0)
80200f14:	8fc20018 	lw	v0,24(s8)
80200f18:	00021840 	sll	v1,v0,0x1
80200f1c:	8fc20000 	lw	v0,0(s8)
80200f20:	00621021 	addu	v0,v1,v0
80200f24:	244201c8 	addiu	v0,v0,456
80200f28:	afc20044 	sw	v0,68(s8)
80200f2c:	8fc30038 	lw	v1,56(s8)
80200f30:	3c0200ff 	lui	v0,0xff
80200f34:	3442ffff 	ori	v0,v0,0xffff
80200f38:	0043102b 	sltu	v0,v0,v1
80200f3c:	14400016 	bnez	v0,80200f98 <LzmaDecode+0xcfc>
80200f40:	00000000 	nop
80200f44:	8fc30030 	lw	v1,48(s8)
80200f48:	8fc20034 	lw	v0,52(s8)
80200f4c:	14620005 	bne	v1,v0,80200f64 <LzmaDecode+0xcc8>
80200f50:	00000000 	nop
80200f54:	24020001 	li	v0,1
80200f58:	afc20060 	sw	v0,96(s8)
80200f5c:	080806c4 	j	80201b10 <LzmaDecode+0x1874>
80200f60:	00000000 	nop
80200f64:	8fc20038 	lw	v0,56(s8)
80200f68:	00021200 	sll	v0,v0,0x8
80200f6c:	afc20038 	sw	v0,56(s8)
80200f70:	8fc2003c 	lw	v0,60(s8)
80200f74:	00022200 	sll	a0,v0,0x8
80200f78:	27c50030 	addiu	a1,s8,48
80200f7c:	8ca20000 	lw	v0,0(a1)
80200f80:	00401821 	move	v1,v0
80200f84:	90630000 	lbu	v1,0(v1)
80200f88:	00831825 	or	v1,a0,v1
80200f8c:	24420001 	addiu	v0,v0,1
80200f90:	aca20000 	sw	v0,0(a1)
80200f94:	afc3003c 	sw	v1,60(s8)
80200f98:	8fc20038 	lw	v0,56(s8)
80200f9c:	00021ac2 	srl	v1,v0,0xb
80200fa0:	8fc20044 	lw	v0,68(s8)
80200fa4:	94420000 	lhu	v0,0(v0)
80200fa8:	70621002 	mul	v0,v1,v0
80200fac:	afc20040 	sw	v0,64(s8)
80200fb0:	8fc3003c 	lw	v1,60(s8)
80200fb4:	8fc20040 	lw	v0,64(s8)
80200fb8:	0062102b 	sltu	v0,v1,v0
80200fbc:	10400011 	beqz	v0,80201004 <LzmaDecode+0xd68>
80200fc0:	00000000 	nop
80200fc4:	8fc20040 	lw	v0,64(s8)
80200fc8:	afc20038 	sw	v0,56(s8)
80200fcc:	8fc40044 	lw	a0,68(s8)
80200fd0:	8fc50044 	lw	a1,68(s8)
80200fd4:	8fc20044 	lw	v0,68(s8)
80200fd8:	94430000 	lhu	v1,0(v0)
80200fdc:	24020800 	li	v0,2048
80200fe0:	00431023 	subu	v0,v0,v1
80200fe4:	00021143 	sra	v0,v0,0x5
80200fe8:	94a30000 	lhu	v1,0(a1)
80200fec:	00621021 	addu	v0,v1,v0
80200ff0:	a4820000 	sh	v0,0(a0)
80200ff4:	8fc20024 	lw	v0,36(s8)
80200ff8:	afc20058 	sw	v0,88(s8)
80200ffc:	08080415 	j	80201054 <LzmaDecode+0xdb8>
80201000:	00000000 	nop
80201004:	8fc30038 	lw	v1,56(s8)
80201008:	8fc20040 	lw	v0,64(s8)
8020100c:	00621023 	subu	v0,v1,v0
80201010:	afc20038 	sw	v0,56(s8)
80201014:	8fc3003c 	lw	v1,60(s8)
80201018:	8fc20040 	lw	v0,64(s8)
8020101c:	00621023 	subu	v0,v1,v0
80201020:	afc2003c 	sw	v0,60(s8)
80201024:	8fc40044 	lw	a0,68(s8)
80201028:	8fc30044 	lw	v1,68(s8)
8020102c:	8fc20044 	lw	v0,68(s8)
80201030:	94420000 	lhu	v0,0(v0)
80201034:	00021142 	srl	v0,v0,0x5
80201038:	94630000 	lhu	v1,0(v1)
8020103c:	00621023 	subu	v0,v1,v0
80201040:	a4820000 	sh	v0,0(a0)
80201044:	8fc20028 	lw	v0,40(s8)
80201048:	afc20058 	sw	v0,88(s8)
8020104c:	8fc20024 	lw	v0,36(s8)
80201050:	afc20028 	sw	v0,40(s8)
80201054:	8fc20020 	lw	v0,32(s8)
80201058:	afc20024 	sw	v0,36(s8)
8020105c:	8fc2001c 	lw	v0,28(s8)
80201060:	afc20020 	sw	v0,32(s8)
80201064:	8fc20058 	lw	v0,88(s8)
80201068:	afc2001c 	sw	v0,28(s8)
8020106c:	8fc20018 	lw	v0,24(s8)
80201070:	28420007 	slti	v0,v0,7
80201074:	10400005 	beqz	v0,8020108c <LzmaDecode+0xdf0>
80201078:	00000000 	nop
8020107c:	24020008 	li	v0,8
80201080:	afc2006c 	sw	v0,108(s8)
80201084:	08080425 	j	80201094 <LzmaDecode+0xdf8>
80201088:	00000000 	nop
8020108c:	2403000b 	li	v1,11
80201090:	afc3006c 	sw	v1,108(s8)
80201094:	8fc2006c 	lw	v0,108(s8)
80201098:	afc20018 	sw	v0,24(s8)
8020109c:	8fc20000 	lw	v0,0(s8)
802010a0:	24420a68 	addiu	v0,v0,2664
802010a4:	afc20044 	sw	v0,68(s8)
802010a8:	8fc20044 	lw	v0,68(s8)
802010ac:	afc20050 	sw	v0,80(s8)
802010b0:	8fc30038 	lw	v1,56(s8)
802010b4:	3c0200ff 	lui	v0,0xff
802010b8:	3442ffff 	ori	v0,v0,0xffff
802010bc:	0043102b 	sltu	v0,v0,v1
802010c0:	14400016 	bnez	v0,8020111c <LzmaDecode+0xe80>
802010c4:	00000000 	nop
802010c8:	8fc30030 	lw	v1,48(s8)
802010cc:	8fc20034 	lw	v0,52(s8)
802010d0:	14620005 	bne	v1,v0,802010e8 <LzmaDecode+0xe4c>
802010d4:	00000000 	nop
802010d8:	24030001 	li	v1,1
802010dc:	afc30060 	sw	v1,96(s8)
802010e0:	080806c4 	j	80201b10 <LzmaDecode+0x1874>
802010e4:	00000000 	nop
802010e8:	8fc20038 	lw	v0,56(s8)
802010ec:	00021200 	sll	v0,v0,0x8
802010f0:	afc20038 	sw	v0,56(s8)
802010f4:	8fc2003c 	lw	v0,60(s8)
802010f8:	00022200 	sll	a0,v0,0x8
802010fc:	27c50030 	addiu	a1,s8,48
80201100:	8ca20000 	lw	v0,0(a1)
80201104:	00401821 	move	v1,v0
80201108:	90630000 	lbu	v1,0(v1)
8020110c:	00831825 	or	v1,a0,v1
80201110:	24420001 	addiu	v0,v0,1
80201114:	aca20000 	sw	v0,0(a1)
80201118:	afc3003c 	sw	v1,60(s8)
8020111c:	8fc20038 	lw	v0,56(s8)
80201120:	00021ac2 	srl	v1,v0,0xb
80201124:	8fc20050 	lw	v0,80(s8)
80201128:	94420000 	lhu	v0,0(v0)
8020112c:	70621002 	mul	v0,v1,v0
80201130:	afc20040 	sw	v0,64(s8)
80201134:	8fc3003c 	lw	v1,60(s8)
80201138:	8fc20040 	lw	v0,64(s8)
8020113c:	0062102b 	sltu	v0,v1,v0
80201140:	10400018 	beqz	v0,802011a4 <LzmaDecode+0xf08>
80201144:	00000000 	nop
80201148:	8fc20040 	lw	v0,64(s8)
8020114c:	afc20038 	sw	v0,56(s8)
80201150:	8fc40050 	lw	a0,80(s8)
80201154:	8fc50050 	lw	a1,80(s8)
80201158:	8fc20050 	lw	v0,80(s8)
8020115c:	94430000 	lhu	v1,0(v0)
80201160:	24020800 	li	v0,2048
80201164:	00431023 	subu	v0,v0,v1
80201168:	00021143 	sra	v0,v0,0x5
8020116c:	94a30000 	lhu	v1,0(a1)
80201170:	00621021 	addu	v0,v1,v0
80201174:	a4820000 	sh	v0,0(a0)
80201178:	8fc20048 	lw	v0,72(s8)
8020117c:	00021900 	sll	v1,v0,0x4
80201180:	8fc20044 	lw	v0,68(s8)
80201184:	00621021 	addu	v0,v1,v0
80201188:	24420004 	addiu	v0,v0,4
8020118c:	afc20050 	sw	v0,80(s8)
80201190:	afc00054 	sw	zero,84(s8)
80201194:	24020003 	li	v0,3
80201198:	afc20058 	sw	v0,88(s8)
8020119c:	080804d1 	j	80201344 <LzmaDecode+0x10a8>
802011a0:	00000000 	nop
802011a4:	8fc30038 	lw	v1,56(s8)
802011a8:	8fc20040 	lw	v0,64(s8)
802011ac:	00621023 	subu	v0,v1,v0
802011b0:	afc20038 	sw	v0,56(s8)
802011b4:	8fc3003c 	lw	v1,60(s8)
802011b8:	8fc20040 	lw	v0,64(s8)
802011bc:	00621023 	subu	v0,v1,v0
802011c0:	afc2003c 	sw	v0,60(s8)
802011c4:	8fc40050 	lw	a0,80(s8)
802011c8:	8fc30050 	lw	v1,80(s8)
802011cc:	8fc20050 	lw	v0,80(s8)
802011d0:	94420000 	lhu	v0,0(v0)
802011d4:	00021142 	srl	v0,v0,0x5
802011d8:	94630000 	lhu	v1,0(v1)
802011dc:	00621023 	subu	v0,v1,v0
802011e0:	a4820000 	sh	v0,0(a0)
802011e4:	8fc20044 	lw	v0,68(s8)
802011e8:	24420002 	addiu	v0,v0,2
802011ec:	afc20050 	sw	v0,80(s8)
802011f0:	8fc30038 	lw	v1,56(s8)
802011f4:	3c0200ff 	lui	v0,0xff
802011f8:	3442ffff 	ori	v0,v0,0xffff
802011fc:	0043102b 	sltu	v0,v0,v1
80201200:	14400016 	bnez	v0,8020125c <LzmaDecode+0xfc0>
80201204:	00000000 	nop
80201208:	8fc30030 	lw	v1,48(s8)
8020120c:	8fc20034 	lw	v0,52(s8)
80201210:	14620005 	bne	v1,v0,80201228 <LzmaDecode+0xf8c>
80201214:	00000000 	nop
80201218:	24020001 	li	v0,1
8020121c:	afc20060 	sw	v0,96(s8)
80201220:	080806c4 	j	80201b10 <LzmaDecode+0x1874>
80201224:	00000000 	nop
80201228:	8fc20038 	lw	v0,56(s8)
8020122c:	00021200 	sll	v0,v0,0x8
80201230:	afc20038 	sw	v0,56(s8)
80201234:	8fc2003c 	lw	v0,60(s8)
80201238:	00022200 	sll	a0,v0,0x8
8020123c:	27c50030 	addiu	a1,s8,48
80201240:	8ca20000 	lw	v0,0(a1)
80201244:	00401821 	move	v1,v0
80201248:	90630000 	lbu	v1,0(v1)
8020124c:	00831825 	or	v1,a0,v1
80201250:	24420001 	addiu	v0,v0,1
80201254:	aca20000 	sw	v0,0(a1)
80201258:	afc3003c 	sw	v1,60(s8)
8020125c:	8fc20038 	lw	v0,56(s8)
80201260:	00021ac2 	srl	v1,v0,0xb
80201264:	8fc20050 	lw	v0,80(s8)
80201268:	94420000 	lhu	v0,0(v0)
8020126c:	70621002 	mul	v0,v1,v0
80201270:	afc20040 	sw	v0,64(s8)
80201274:	8fc3003c 	lw	v1,60(s8)
80201278:	8fc20040 	lw	v0,64(s8)
8020127c:	0062102b 	sltu	v0,v1,v0
80201280:	10400019 	beqz	v0,802012e8 <LzmaDecode+0x104c>
80201284:	00000000 	nop
80201288:	8fc20040 	lw	v0,64(s8)
8020128c:	afc20038 	sw	v0,56(s8)
80201290:	8fc40050 	lw	a0,80(s8)
80201294:	8fc50050 	lw	a1,80(s8)
80201298:	8fc20050 	lw	v0,80(s8)
8020129c:	94430000 	lhu	v1,0(v0)
802012a0:	24020800 	li	v0,2048
802012a4:	00431023 	subu	v0,v0,v1
802012a8:	00021143 	sra	v0,v0,0x5
802012ac:	94a30000 	lhu	v1,0(a1)
802012b0:	00621021 	addu	v0,v1,v0
802012b4:	a4820000 	sh	v0,0(a0)
802012b8:	8fc20048 	lw	v0,72(s8)
802012bc:	00021900 	sll	v1,v0,0x4
802012c0:	8fc20044 	lw	v0,68(s8)
802012c4:	00621021 	addu	v0,v1,v0
802012c8:	24420104 	addiu	v0,v0,260
802012cc:	afc20050 	sw	v0,80(s8)
802012d0:	24020008 	li	v0,8
802012d4:	afc20054 	sw	v0,84(s8)
802012d8:	24020003 	li	v0,3
802012dc:	afc20058 	sw	v0,88(s8)
802012e0:	080804d1 	j	80201344 <LzmaDecode+0x10a8>
802012e4:	00000000 	nop
802012e8:	8fc30038 	lw	v1,56(s8)
802012ec:	8fc20040 	lw	v0,64(s8)
802012f0:	00621023 	subu	v0,v1,v0
802012f4:	afc20038 	sw	v0,56(s8)
802012f8:	8fc3003c 	lw	v1,60(s8)
802012fc:	8fc20040 	lw	v0,64(s8)
80201300:	00621023 	subu	v0,v1,v0
80201304:	afc2003c 	sw	v0,60(s8)
80201308:	8fc40050 	lw	a0,80(s8)
8020130c:	8fc30050 	lw	v1,80(s8)
80201310:	8fc20050 	lw	v0,80(s8)
80201314:	94420000 	lhu	v0,0(v0)
80201318:	00021142 	srl	v0,v0,0x5
8020131c:	94630000 	lhu	v1,0(v1)
80201320:	00621023 	subu	v0,v1,v0
80201324:	a4820000 	sh	v0,0(a0)
80201328:	8fc20044 	lw	v0,68(s8)
8020132c:	24420204 	addiu	v0,v0,516
80201330:	afc20050 	sw	v0,80(s8)
80201334:	24020010 	li	v0,16
80201338:	afc20054 	sw	v0,84(s8)
8020133c:	24020008 	li	v0,8
80201340:	afc20058 	sw	v0,88(s8)
80201344:	8fc20058 	lw	v0,88(s8)
80201348:	afc2004c 	sw	v0,76(s8)
8020134c:	24020001 	li	v0,1
80201350:	afc2002c 	sw	v0,44(s8)
80201354:	8fc2002c 	lw	v0,44(s8)
80201358:	00021840 	sll	v1,v0,0x1
8020135c:	8fc20050 	lw	v0,80(s8)
80201360:	00621021 	addu	v0,v1,v0
80201364:	afc2005c 	sw	v0,92(s8)
80201368:	8fc30038 	lw	v1,56(s8)
8020136c:	3c0200ff 	lui	v0,0xff
80201370:	3442ffff 	ori	v0,v0,0xffff
80201374:	0043102b 	sltu	v0,v0,v1
80201378:	14400016 	bnez	v0,802013d4 <LzmaDecode+0x1138>
8020137c:	00000000 	nop
80201380:	8fc30030 	lw	v1,48(s8)
80201384:	8fc20034 	lw	v0,52(s8)
80201388:	14620005 	bne	v1,v0,802013a0 <LzmaDecode+0x1104>
8020138c:	00000000 	nop
80201390:	24020001 	li	v0,1
80201394:	afc20060 	sw	v0,96(s8)
80201398:	080806c4 	j	80201b10 <LzmaDecode+0x1874>
8020139c:	00000000 	nop
802013a0:	8fc20038 	lw	v0,56(s8)
802013a4:	00021200 	sll	v0,v0,0x8
802013a8:	afc20038 	sw	v0,56(s8)
802013ac:	8fc2003c 	lw	v0,60(s8)
802013b0:	00022200 	sll	a0,v0,0x8
802013b4:	27c50030 	addiu	a1,s8,48
802013b8:	8ca20000 	lw	v0,0(a1)
802013bc:	00401821 	move	v1,v0
802013c0:	90630000 	lbu	v1,0(v1)
802013c4:	00831825 	or	v1,a0,v1
802013c8:	24420001 	addiu	v0,v0,1
802013cc:	aca20000 	sw	v0,0(a1)
802013d0:	afc3003c 	sw	v1,60(s8)
802013d4:	8fc20038 	lw	v0,56(s8)
802013d8:	00021ac2 	srl	v1,v0,0xb
802013dc:	8fc2005c 	lw	v0,92(s8)
802013e0:	94420000 	lhu	v0,0(v0)
802013e4:	70621002 	mul	v0,v1,v0
802013e8:	afc20040 	sw	v0,64(s8)
802013ec:	8fc3003c 	lw	v1,60(s8)
802013f0:	8fc20040 	lw	v0,64(s8)
802013f4:	0062102b 	sltu	v0,v1,v0
802013f8:	10400012 	beqz	v0,80201444 <LzmaDecode+0x11a8>
802013fc:	00000000 	nop
80201400:	8fc20040 	lw	v0,64(s8)
80201404:	afc20038 	sw	v0,56(s8)
80201408:	8fc4005c 	lw	a0,92(s8)
8020140c:	8fc5005c 	lw	a1,92(s8)
80201410:	8fc2005c 	lw	v0,92(s8)
80201414:	94430000 	lhu	v1,0(v0)
80201418:	24020800 	li	v0,2048
8020141c:	00431023 	subu	v0,v0,v1
80201420:	00021143 	sra	v0,v0,0x5
80201424:	94a30000 	lhu	v1,0(a1)
80201428:	00621021 	addu	v0,v1,v0
8020142c:	a4820000 	sh	v0,0(a0)
80201430:	8fc2002c 	lw	v0,44(s8)
80201434:	00021040 	sll	v0,v0,0x1
80201438:	afc2002c 	sw	v0,44(s8)
8020143c:	08080526 	j	80201498 <LzmaDecode+0x11fc>
80201440:	00000000 	nop
80201444:	8fc30038 	lw	v1,56(s8)
80201448:	8fc20040 	lw	v0,64(s8)
8020144c:	00621023 	subu	v0,v1,v0
80201450:	afc20038 	sw	v0,56(s8)
80201454:	8fc3003c 	lw	v1,60(s8)
80201458:	8fc20040 	lw	v0,64(s8)
8020145c:	00621023 	subu	v0,v1,v0
80201460:	afc2003c 	sw	v0,60(s8)
80201464:	8fc4005c 	lw	a0,92(s8)
80201468:	8fc3005c 	lw	v1,92(s8)
8020146c:	8fc2005c 	lw	v0,92(s8)
80201470:	94420000 	lhu	v0,0(v0)
80201474:	00021142 	srl	v0,v0,0x5
80201478:	94630000 	lhu	v1,0(v1)
8020147c:	00621023 	subu	v0,v1,v0
80201480:	a4820000 	sh	v0,0(a0)
80201484:	8fc3002c 	lw	v1,44(s8)
80201488:	8fc2002c 	lw	v0,44(s8)
8020148c:	00621021 	addu	v0,v1,v0
80201490:	24420001 	addiu	v0,v0,1
80201494:	afc2002c 	sw	v0,44(s8)
80201498:	8fc2004c 	lw	v0,76(s8)
8020149c:	2442ffff 	addiu	v0,v0,-1
802014a0:	afc2004c 	sw	v0,76(s8)
802014a4:	10400003 	beqz	v0,802014b4 <LzmaDecode+0x1218>
802014a8:	00000000 	nop
802014ac:	080804d5 	j	80201354 <LzmaDecode+0x10b8>
802014b0:	00000000 	nop
802014b4:	24030001 	li	v1,1
802014b8:	8fc20058 	lw	v0,88(s8)
802014bc:	00431804 	sllv	v1,v1,v0
802014c0:	8fc2002c 	lw	v0,44(s8)
802014c4:	00431023 	subu	v0,v0,v1
802014c8:	afc2002c 	sw	v0,44(s8)
802014cc:	8fc3002c 	lw	v1,44(s8)
802014d0:	8fc20054 	lw	v0,84(s8)
802014d4:	00621021 	addu	v0,v1,v0
802014d8:	afc2002c 	sw	v0,44(s8)
802014dc:	8fc20018 	lw	v0,24(s8)
802014e0:	28420004 	slti	v0,v0,4
802014e4:	1040013d 	beqz	v0,802019dc <LzmaDecode+0x1740>
802014e8:	00000000 	nop
802014ec:	8fc20018 	lw	v0,24(s8)
802014f0:	24420007 	addiu	v0,v0,7
802014f4:	afc20018 	sw	v0,24(s8)
802014f8:	8fc2002c 	lw	v0,44(s8)
802014fc:	afc20070 	sw	v0,112(s8)
80201500:	8fc30070 	lw	v1,112(s8)
80201504:	28620004 	slti	v0,v1,4
80201508:	14400003 	bnez	v0,80201518 <LzmaDecode+0x127c>
8020150c:	00000000 	nop
80201510:	24020003 	li	v0,3
80201514:	afc20070 	sw	v0,112(s8)
80201518:	8fc20070 	lw	v0,112(s8)
8020151c:	000219c0 	sll	v1,v0,0x7
80201520:	8fc20000 	lw	v0,0(s8)
80201524:	00621021 	addu	v0,v1,v0
80201528:	24420360 	addiu	v0,v0,864
8020152c:	afc20044 	sw	v0,68(s8)
80201530:	24020006 	li	v0,6
80201534:	afc20058 	sw	v0,88(s8)
80201538:	24020001 	li	v0,1
8020153c:	afc2005c 	sw	v0,92(s8)
80201540:	8fc2005c 	lw	v0,92(s8)
80201544:	00021840 	sll	v1,v0,0x1
80201548:	8fc20044 	lw	v0,68(s8)
8020154c:	00621021 	addu	v0,v1,v0
80201550:	afc20054 	sw	v0,84(s8)
80201554:	8fc30038 	lw	v1,56(s8)
80201558:	3c0200ff 	lui	v0,0xff
8020155c:	3442ffff 	ori	v0,v0,0xffff
80201560:	0043102b 	sltu	v0,v0,v1
80201564:	14400016 	bnez	v0,802015c0 <LzmaDecode+0x1324>
80201568:	00000000 	nop
8020156c:	8fc30030 	lw	v1,48(s8)
80201570:	8fc20034 	lw	v0,52(s8)
80201574:	14620005 	bne	v1,v0,8020158c <LzmaDecode+0x12f0>
80201578:	00000000 	nop
8020157c:	24030001 	li	v1,1
80201580:	afc30060 	sw	v1,96(s8)
80201584:	080806c4 	j	80201b10 <LzmaDecode+0x1874>
80201588:	00000000 	nop
8020158c:	8fc20038 	lw	v0,56(s8)
80201590:	00021200 	sll	v0,v0,0x8
80201594:	afc20038 	sw	v0,56(s8)
80201598:	8fc2003c 	lw	v0,60(s8)
8020159c:	00022200 	sll	a0,v0,0x8
802015a0:	27c50030 	addiu	a1,s8,48
802015a4:	8ca20000 	lw	v0,0(a1)
802015a8:	00401821 	move	v1,v0
802015ac:	90630000 	lbu	v1,0(v1)
802015b0:	00831825 	or	v1,a0,v1
802015b4:	24420001 	addiu	v0,v0,1
802015b8:	aca20000 	sw	v0,0(a1)
802015bc:	afc3003c 	sw	v1,60(s8)
802015c0:	8fc20038 	lw	v0,56(s8)
802015c4:	00021ac2 	srl	v1,v0,0xb
802015c8:	8fc20054 	lw	v0,84(s8)
802015cc:	94420000 	lhu	v0,0(v0)
802015d0:	70621002 	mul	v0,v1,v0
802015d4:	afc20040 	sw	v0,64(s8)
802015d8:	8fc3003c 	lw	v1,60(s8)
802015dc:	8fc20040 	lw	v0,64(s8)
802015e0:	0062102b 	sltu	v0,v1,v0
802015e4:	10400012 	beqz	v0,80201630 <LzmaDecode+0x1394>
802015e8:	00000000 	nop
802015ec:	8fc20040 	lw	v0,64(s8)
802015f0:	afc20038 	sw	v0,56(s8)
802015f4:	8fc40054 	lw	a0,84(s8)
802015f8:	8fc50054 	lw	a1,84(s8)
802015fc:	8fc20054 	lw	v0,84(s8)
80201600:	94430000 	lhu	v1,0(v0)
80201604:	24020800 	li	v0,2048
80201608:	00431023 	subu	v0,v0,v1
8020160c:	00021143 	sra	v0,v0,0x5
80201610:	94a30000 	lhu	v1,0(a1)
80201614:	00621021 	addu	v0,v1,v0
80201618:	a4820000 	sh	v0,0(a0)
8020161c:	8fc2005c 	lw	v0,92(s8)
80201620:	00021040 	sll	v0,v0,0x1
80201624:	afc2005c 	sw	v0,92(s8)
80201628:	080805a1 	j	80201684 <LzmaDecode+0x13e8>
8020162c:	00000000 	nop
80201630:	8fc30038 	lw	v1,56(s8)
80201634:	8fc20040 	lw	v0,64(s8)
80201638:	00621023 	subu	v0,v1,v0
8020163c:	afc20038 	sw	v0,56(s8)
80201640:	8fc3003c 	lw	v1,60(s8)
80201644:	8fc20040 	lw	v0,64(s8)
80201648:	00621023 	subu	v0,v1,v0
8020164c:	afc2003c 	sw	v0,60(s8)
80201650:	8fc40054 	lw	a0,84(s8)
80201654:	8fc30054 	lw	v1,84(s8)
80201658:	8fc20054 	lw	v0,84(s8)
8020165c:	94420000 	lhu	v0,0(v0)
80201660:	00021142 	srl	v0,v0,0x5
80201664:	94630000 	lhu	v1,0(v1)
80201668:	00621023 	subu	v0,v1,v0
8020166c:	a4820000 	sh	v0,0(a0)
80201670:	8fc3005c 	lw	v1,92(s8)
80201674:	8fc2005c 	lw	v0,92(s8)
80201678:	00621021 	addu	v0,v1,v0
8020167c:	24420001 	addiu	v0,v0,1
80201680:	afc2005c 	sw	v0,92(s8)
80201684:	8fc20058 	lw	v0,88(s8)
80201688:	2442ffff 	addiu	v0,v0,-1
8020168c:	afc20058 	sw	v0,88(s8)
80201690:	10400003 	beqz	v0,802016a0 <LzmaDecode+0x1404>
80201694:	00000000 	nop
80201698:	08080550 	j	80201540 <LzmaDecode+0x12a4>
8020169c:	00000000 	nop
802016a0:	8fc2005c 	lw	v0,92(s8)
802016a4:	2442ffc0 	addiu	v0,v0,-64
802016a8:	afc2005c 	sw	v0,92(s8)
802016ac:	8fc2005c 	lw	v0,92(s8)
802016b0:	28420004 	slti	v0,v0,4
802016b4:	144000be 	bnez	v0,802019b0 <LzmaDecode+0x1714>
802016b8:	00000000 	nop
802016bc:	8fc2005c 	lw	v0,92(s8)
802016c0:	00021043 	sra	v0,v0,0x1
802016c4:	2442ffff 	addiu	v0,v0,-1
802016c8:	afc20058 	sw	v0,88(s8)
802016cc:	8fc2005c 	lw	v0,92(s8)
802016d0:	30420001 	andi	v0,v0,0x1
802016d4:	34420002 	ori	v0,v0,0x2
802016d8:	afc2001c 	sw	v0,28(s8)
802016dc:	8fc2005c 	lw	v0,92(s8)
802016e0:	2842000e 	slti	v0,v0,14
802016e4:	10400010 	beqz	v0,80201728 <LzmaDecode+0x148c>
802016e8:	00000000 	nop
802016ec:	8fc3001c 	lw	v1,28(s8)
802016f0:	8fc20058 	lw	v0,88(s8)
802016f4:	00431004 	sllv	v0,v1,v0
802016f8:	afc2001c 	sw	v0,28(s8)
802016fc:	8fc2001c 	lw	v0,28(s8)
80201700:	00021840 	sll	v1,v0,0x1
80201704:	8fc20000 	lw	v0,0(s8)
80201708:	00621821 	addu	v1,v1,v0
8020170c:	8fc2005c 	lw	v0,92(s8)
80201710:	00021040 	sll	v0,v0,0x1
80201714:	00621023 	subu	v0,v1,v0
80201718:	2442055e 	addiu	v0,v0,1374
8020171c:	afc20044 	sw	v0,68(s8)
80201720:	08080609 	j	80201824 <LzmaDecode+0x1588>
80201724:	00000000 	nop
80201728:	8fc20058 	lw	v0,88(s8)
8020172c:	2442fffc 	addiu	v0,v0,-4
80201730:	afc20058 	sw	v0,88(s8)
80201734:	8fc30038 	lw	v1,56(s8)
80201738:	3c0200ff 	lui	v0,0xff
8020173c:	3442ffff 	ori	v0,v0,0xffff
80201740:	0043102b 	sltu	v0,v0,v1
80201744:	14400016 	bnez	v0,802017a0 <LzmaDecode+0x1504>
80201748:	00000000 	nop
8020174c:	8fc30030 	lw	v1,48(s8)
80201750:	8fc20034 	lw	v0,52(s8)
80201754:	14620005 	bne	v1,v0,8020176c <LzmaDecode+0x14d0>
80201758:	00000000 	nop
8020175c:	24020001 	li	v0,1
80201760:	afc20060 	sw	v0,96(s8)
80201764:	080806c4 	j	80201b10 <LzmaDecode+0x1874>
80201768:	00000000 	nop
8020176c:	8fc20038 	lw	v0,56(s8)
80201770:	00021200 	sll	v0,v0,0x8
80201774:	afc20038 	sw	v0,56(s8)
80201778:	8fc2003c 	lw	v0,60(s8)
8020177c:	00022200 	sll	a0,v0,0x8
80201780:	27c50030 	addiu	a1,s8,48
80201784:	8ca20000 	lw	v0,0(a1)
80201788:	00401821 	move	v1,v0
8020178c:	90630000 	lbu	v1,0(v1)
80201790:	00831825 	or	v1,a0,v1
80201794:	24420001 	addiu	v0,v0,1
80201798:	aca20000 	sw	v0,0(a1)
8020179c:	afc3003c 	sw	v1,60(s8)
802017a0:	8fc20038 	lw	v0,56(s8)
802017a4:	00021042 	srl	v0,v0,0x1
802017a8:	afc20038 	sw	v0,56(s8)
802017ac:	8fc2001c 	lw	v0,28(s8)
802017b0:	00021040 	sll	v0,v0,0x1
802017b4:	afc2001c 	sw	v0,28(s8)
802017b8:	8fc3003c 	lw	v1,60(s8)
802017bc:	8fc20038 	lw	v0,56(s8)
802017c0:	0062102b 	sltu	v0,v1,v0
802017c4:	14400008 	bnez	v0,802017e8 <LzmaDecode+0x154c>
802017c8:	00000000 	nop
802017cc:	8fc3003c 	lw	v1,60(s8)
802017d0:	8fc20038 	lw	v0,56(s8)
802017d4:	00621023 	subu	v0,v1,v0
802017d8:	afc2003c 	sw	v0,60(s8)
802017dc:	8fc2001c 	lw	v0,28(s8)
802017e0:	34420001 	ori	v0,v0,0x1
802017e4:	afc2001c 	sw	v0,28(s8)
802017e8:	8fc20058 	lw	v0,88(s8)
802017ec:	2442ffff 	addiu	v0,v0,-1
802017f0:	afc20058 	sw	v0,88(s8)
802017f4:	10400003 	beqz	v0,80201804 <LzmaDecode+0x1568>
802017f8:	00000000 	nop
802017fc:	080805cd 	j	80201734 <LzmaDecode+0x1498>
80201800:	00000000 	nop
80201804:	8fc20000 	lw	v0,0(s8)
80201808:	24420644 	addiu	v0,v0,1604
8020180c:	afc20044 	sw	v0,68(s8)
80201810:	8fc2001c 	lw	v0,28(s8)
80201814:	00021100 	sll	v0,v0,0x4
80201818:	afc2001c 	sw	v0,28(s8)
8020181c:	24020004 	li	v0,4
80201820:	afc20058 	sw	v0,88(s8)
80201824:	24020001 	li	v0,1
80201828:	afc20054 	sw	v0,84(s8)
8020182c:	24020001 	li	v0,1
80201830:	afc20050 	sw	v0,80(s8)
80201834:	8fc20050 	lw	v0,80(s8)
80201838:	00021840 	sll	v1,v0,0x1
8020183c:	8fc20044 	lw	v0,68(s8)
80201840:	00621021 	addu	v0,v1,v0
80201844:	afc2004c 	sw	v0,76(s8)
80201848:	8fc30038 	lw	v1,56(s8)
8020184c:	3c0200ff 	lui	v0,0xff
80201850:	3442ffff 	ori	v0,v0,0xffff
80201854:	0043102b 	sltu	v0,v0,v1
80201858:	14400016 	bnez	v0,802018b4 <LzmaDecode+0x1618>
8020185c:	00000000 	nop
80201860:	8fc30030 	lw	v1,48(s8)
80201864:	8fc20034 	lw	v0,52(s8)
80201868:	14620005 	bne	v1,v0,80201880 <LzmaDecode+0x15e4>
8020186c:	00000000 	nop
80201870:	24030001 	li	v1,1
80201874:	afc30060 	sw	v1,96(s8)
80201878:	080806c4 	j	80201b10 <LzmaDecode+0x1874>
8020187c:	00000000 	nop
80201880:	8fc20038 	lw	v0,56(s8)
80201884:	00021200 	sll	v0,v0,0x8
80201888:	afc20038 	sw	v0,56(s8)
8020188c:	8fc2003c 	lw	v0,60(s8)
80201890:	00022200 	sll	a0,v0,0x8
80201894:	27c50030 	addiu	a1,s8,48
80201898:	8ca20000 	lw	v0,0(a1)
8020189c:	00401821 	move	v1,v0
802018a0:	90630000 	lbu	v1,0(v1)
802018a4:	00831825 	or	v1,a0,v1
802018a8:	24420001 	addiu	v0,v0,1
802018ac:	aca20000 	sw	v0,0(a1)
802018b0:	afc3003c 	sw	v1,60(s8)
802018b4:	8fc20038 	lw	v0,56(s8)
802018b8:	00021ac2 	srl	v1,v0,0xb
802018bc:	8fc2004c 	lw	v0,76(s8)
802018c0:	94420000 	lhu	v0,0(v0)
802018c4:	70621002 	mul	v0,v1,v0
802018c8:	afc20040 	sw	v0,64(s8)
802018cc:	8fc3003c 	lw	v1,60(s8)
802018d0:	8fc20040 	lw	v0,64(s8)
802018d4:	0062102b 	sltu	v0,v1,v0
802018d8:	10400012 	beqz	v0,80201924 <LzmaDecode+0x1688>
802018dc:	00000000 	nop
802018e0:	8fc20040 	lw	v0,64(s8)
802018e4:	afc20038 	sw	v0,56(s8)
802018e8:	8fc4004c 	lw	a0,76(s8)
802018ec:	8fc5004c 	lw	a1,76(s8)
802018f0:	8fc2004c 	lw	v0,76(s8)
802018f4:	94430000 	lhu	v1,0(v0)
802018f8:	24020800 	li	v0,2048
802018fc:	00431023 	subu	v0,v0,v1
80201900:	00021143 	sra	v0,v0,0x5
80201904:	94a30000 	lhu	v1,0(a1)
80201908:	00621021 	addu	v0,v1,v0
8020190c:	a4820000 	sh	v0,0(a0)
80201910:	8fc20050 	lw	v0,80(s8)
80201914:	00021040 	sll	v0,v0,0x1
80201918:	afc20050 	sw	v0,80(s8)
8020191c:	08080662 	j	80201988 <LzmaDecode+0x16ec>
80201920:	00000000 	nop
80201924:	8fc30038 	lw	v1,56(s8)
80201928:	8fc20040 	lw	v0,64(s8)
8020192c:	00621023 	subu	v0,v1,v0
80201930:	afc20038 	sw	v0,56(s8)
80201934:	8fc3003c 	lw	v1,60(s8)
80201938:	8fc20040 	lw	v0,64(s8)
8020193c:	00621023 	subu	v0,v1,v0
80201940:	afc2003c 	sw	v0,60(s8)
80201944:	8fc4004c 	lw	a0,76(s8)
80201948:	8fc3004c 	lw	v1,76(s8)
8020194c:	8fc2004c 	lw	v0,76(s8)
80201950:	94420000 	lhu	v0,0(v0)
80201954:	00021142 	srl	v0,v0,0x5
80201958:	94630000 	lhu	v1,0(v1)
8020195c:	00621023 	subu	v0,v1,v0
80201960:	a4820000 	sh	v0,0(a0)
80201964:	8fc30050 	lw	v1,80(s8)
80201968:	8fc20050 	lw	v0,80(s8)
8020196c:	00621021 	addu	v0,v1,v0
80201970:	24420001 	addiu	v0,v0,1
80201974:	afc20050 	sw	v0,80(s8)
80201978:	8fc3001c 	lw	v1,28(s8)
8020197c:	8fc20054 	lw	v0,84(s8)
80201980:	00621025 	or	v0,v1,v0
80201984:	afc2001c 	sw	v0,28(s8)
80201988:	8fc20054 	lw	v0,84(s8)
8020198c:	00021040 	sll	v0,v0,0x1
80201990:	afc20054 	sw	v0,84(s8)
80201994:	8fc20058 	lw	v0,88(s8)
80201998:	2442ffff 	addiu	v0,v0,-1
8020199c:	afc20058 	sw	v0,88(s8)
802019a0:	10400005 	beqz	v0,802019b8 <LzmaDecode+0x171c>
802019a4:	00000000 	nop
802019a8:	0808060d 	j	80201834 <LzmaDecode+0x1598>
802019ac:	00000000 	nop
802019b0:	8fc2005c 	lw	v0,92(s8)
802019b4:	afc2001c 	sw	v0,28(s8)
802019b8:	8fc2001c 	lw	v0,28(s8)
802019bc:	24420001 	addiu	v0,v0,1
802019c0:	afc2001c 	sw	v0,28(s8)
802019c4:	14400005 	bnez	v0,802019dc <LzmaDecode+0x1740>
802019c8:	00000000 	nop
802019cc:	2402ffff 	li	v0,-1
802019d0:	afc2002c 	sw	v0,44(s8)
802019d4:	080806a0 	j	80201a80 <LzmaDecode+0x17e4>
802019d8:	00000000 	nop
802019dc:	8fc2002c 	lw	v0,44(s8)
802019e0:	24420002 	addiu	v0,v0,2
802019e4:	afc2002c 	sw	v0,44(s8)
802019e8:	8fc3001c 	lw	v1,28(s8)
802019ec:	8fc20004 	lw	v0,4(s8)
802019f0:	0043102b 	sltu	v0,v0,v1
802019f4:	10400005 	beqz	v0,80201a0c <LzmaDecode+0x1770>
802019f8:	00000000 	nop
802019fc:	24020001 	li	v0,1
80201a00:	afc20060 	sw	v0,96(s8)
80201a04:	080806c4 	j	80201b10 <LzmaDecode+0x1874>
80201a08:	00000000 	nop
80201a0c:	8fc30004 	lw	v1,4(s8)
80201a10:	8fc2001c 	lw	v0,28(s8)
80201a14:	00621823 	subu	v1,v1,v0
80201a18:	8fc20090 	lw	v0,144(s8)
80201a1c:	00621021 	addu	v0,v1,v0
80201a20:	90420000 	lbu	v0,0(v0)
80201a24:	a3c20008 	sb	v0,8(s8)
80201a28:	8fc2002c 	lw	v0,44(s8)
80201a2c:	2442ffff 	addiu	v0,v0,-1
80201a30:	afc2002c 	sw	v0,44(s8)
80201a34:	27c50004 	addiu	a1,s8,4
80201a38:	8ca30000 	lw	v1,0(a1)
80201a3c:	00602021 	move	a0,v1
80201a40:	8fc20090 	lw	v0,144(s8)
80201a44:	00822021 	addu	a0,a0,v0
80201a48:	93c20008 	lbu	v0,8(s8)
80201a4c:	a0820000 	sb	v0,0(a0)
80201a50:	24630001 	addiu	v1,v1,1
80201a54:	aca30000 	sw	v1,0(a1)
80201a58:	8fc2002c 	lw	v0,44(s8)
80201a5c:	1040fa76 	beqz	v0,80200438 <LzmaDecode+0x19c>
80201a60:	00000000 	nop
80201a64:	8fc20004 	lw	v0,4(s8)
80201a68:	8fc30094 	lw	v1,148(s8)
80201a6c:	0043102b 	sltu	v0,v0,v1
80201a70:	1040fa71 	beqz	v0,80200438 <LzmaDecode+0x19c>
80201a74:	00000000 	nop
80201a78:	08080683 	j	80201a0c <LzmaDecode+0x1770>
80201a7c:	00000000 	nop
80201a80:	8fc30038 	lw	v1,56(s8)
80201a84:	3c0200ff 	lui	v0,0xff
80201a88:	3442ffff 	ori	v0,v0,0xffff
80201a8c:	0043102b 	sltu	v0,v0,v1
80201a90:	14400016 	bnez	v0,80201aec <LzmaDecode+0x1850>
80201a94:	00000000 	nop
80201a98:	8fc30030 	lw	v1,48(s8)
80201a9c:	8fc20034 	lw	v0,52(s8)
80201aa0:	14620005 	bne	v1,v0,80201ab8 <LzmaDecode+0x181c>
80201aa4:	00000000 	nop
80201aa8:	24030001 	li	v1,1
80201aac:	afc30060 	sw	v1,96(s8)
80201ab0:	080806c4 	j	80201b10 <LzmaDecode+0x1874>
80201ab4:	00000000 	nop
80201ab8:	8fc20038 	lw	v0,56(s8)
80201abc:	00021200 	sll	v0,v0,0x8
80201ac0:	afc20038 	sw	v0,56(s8)
80201ac4:	8fc2003c 	lw	v0,60(s8)
80201ac8:	00022200 	sll	a0,v0,0x8
80201acc:	27c50030 	addiu	a1,s8,48
80201ad0:	8ca20000 	lw	v0,0(a1)
80201ad4:	00401821 	move	v1,v0
80201ad8:	90630000 	lbu	v1,0(v1)
80201adc:	00831825 	or	v1,a0,v1
80201ae0:	24420001 	addiu	v0,v0,1
80201ae4:	aca20000 	sw	v0,0(a1)
80201ae8:	afc3003c 	sw	v1,60(s8)
80201aec:	8fc4008c 	lw	a0,140(s8)
80201af0:	8fc30030 	lw	v1,48(s8)
80201af4:	8fc20084 	lw	v0,132(s8)
80201af8:	00621023 	subu	v0,v1,v0
80201afc:	ac820000 	sw	v0,0(a0)
80201b00:	8fc30098 	lw	v1,152(s8)
80201b04:	8fc20004 	lw	v0,4(s8)
80201b08:	ac620000 	sw	v0,0(v1)
80201b0c:	afc00060 	sw	zero,96(s8)
80201b10:	8fc20060 	lw	v0,96(s8)
80201b14:	03c0e821 	move	sp,s8
80201b18:	8fbe0078 	lw	s8,120(sp)
80201b1c:	27bd0080 	addiu	sp,sp,128
80201b20:	03e00008 	jr	ra
80201b24:	00000000 	nop
	...
